; ModuleID = '44/1101.c'
source_filename = "44/1101.c"
target datalayout = "e-m:e-p270:32:32-p271:32:32-p272:64:64-i64:64-f80:128-n8:16:32:64-S128"
target triple = "x86_64-pc-linux-gnu"

@.str = private unnamed_addr constant [3 x i8] c"%d\00", align 1
@.str.1 = private unnamed_addr constant [2 x i8] c"-\00", align 1
@.str.2 = private unnamed_addr constant [4 x i8] c"%d\0A\00", align 1

; Function Attrs: noinline nounwind uwtable
define dso_local void @main() #0 {
  %1 = alloca i32, align 4
  %2 = alloca i32, align 4
  %3 = alloca i32, align 4
  %4 = alloca i32, align 4
  %5 = alloca i32, align 4
  %6 = alloca i32, align 4
  %7 = alloca i32, align 4
  %8 = alloca i32, align 4
  %9 = alloca [10 x i32], align 16
  store i32 6, i32* %8, align 4
  %10 = bitcast [10 x i32]* %9 to i8*
  call void @llvm.memset.p0i8.i64(i8* align 16 %10, i8 0, i64 40, i1 false)
  store i32 0, i32* %7, align 4
  br label %11

11:                                               ; preds = %112, %0
  %12 = load i32, i32* %7, align 4
  %13 = load i32, i32* %8, align 4
  %14 = sub nsw i32 %13, 1
  %15 = icmp sle i32 %12, %14
  br i1 %15, label %16, label %115

16:                                               ; preds = %11
  %17 = call i32 (i8*, ...) @__isoc99_scanf(i8* getelementptr inbounds ([3 x i8], [3 x i8]* @.str, i64 0, i64 0), i32* %1)
  %18 = load i32, i32* %1, align 4
  %19 = icmp slt i32 %18, 0
  br i1 %19, label %20, label %22

20:                                               ; preds = %16
  %21 = call i32 (i8*, ...) @printf(i8* getelementptr inbounds ([2 x i8], [2 x i8]* @.str.1, i64 0, i64 0))
  br label %22

22:                                               ; preds = %20, %16
  %23 = load i32, i32* %1, align 4
  %24 = sitofp i32 %23 to double
  %25 = call double @llvm.fabs.f64(double %24)
  %26 = fptosi double %25 to i32
  store i32 %26, i32* %3, align 4
  %27 = load i32, i32* %3, align 4
  %28 = sitofp i32 %27 to double
  %29 = call double @log10(double %28) #5
  %30 = fptosi double %29 to i32
  store i32 %30, i32* %2, align 4
  %31 = load i32, i32* %2, align 4
  store i32 %31, i32* %4, align 4
  br label %32

32:                                               ; preds = %59, %22
  %33 = load i32, i32* %4, align 4
  %34 = icmp sge i32 %33, 0
  br i1 %34, label %35, label %62

35:                                               ; preds = %32
  %36 = load i32, i32* %3, align 4
  %37 = sitofp i32 %36 to double
  %38 = load i32, i32* %4, align 4
  %39 = sitofp i32 %38 to double
  %40 = call double @pow(double 1.000000e+01, double %39) #5
  %41 = fdiv double %37, %40
  %42 = fptosi double %41 to i32
  %43 = load i32, i32* %4, align 4
  %44 = sext i32 %43 to i64
  %45 = getelementptr inbounds [10 x i32], [10 x i32]* %9, i64 0, i64 %44
  store i32 %42, i32* %45, align 4
  %46 = load i32, i32* %3, align 4
  %47 = sitofp i32 %46 to double
  %48 = load i32, i32* %4, align 4
  %49 = sext i32 %48 to i64
  %50 = getelementptr inbounds [10 x i32], [10 x i32]* %9, i64 0, i64 %49
  %51 = load i32, i32* %50, align 4
  %52 = sitofp i32 %51 to double
  %53 = load i32, i32* %4, align 4
  %54 = sitofp i32 %53 to double
  %55 = call double @pow(double 1.000000e+01, double %54) #5
  %56 = fmul double %52, %55
  %57 = fsub double %47, %56
  %58 = fptosi double %57 to i32
  store i32 %58, i32* %3, align 4
  br label %59

59:                                               ; preds = %35
  %60 = load i32, i32* %4, align 4
  %61 = add nsw i32 %60, -1
  store i32 %61, i32* %4, align 4
  br label %32

62:                                               ; preds = %32
  store i32 0, i32* %4, align 4
  br label %63

63:                                               ; preds = %76, %62
  %64 = load i32, i32* %4, align 4
  %65 = load i32, i32* %2, align 4
  %66 = icmp sle i32 %64, %65
  br i1 %66, label %67, label %79

67:                                               ; preds = %63
  %68 = load i32, i32* %4, align 4
  %69 = sext i32 %68 to i64
  %70 = getelementptr inbounds [10 x i32], [10 x i32]* %9, i64 0, i64 %69
  %71 = load i32, i32* %70, align 4
  %72 = icmp ne i32 %71, 0
  br i1 %72, label %73, label %75

73:                                               ; preds = %67
  %74 = load i32, i32* %4, align 4
  store i32 %74, i32* %6, align 4
  br label %79

75:                                               ; preds = %67
  br label %76

76:                                               ; preds = %75
  %77 = load i32, i32* %4, align 4
  %78 = add nsw i32 %77, 1
  store i32 %78, i32* %4, align 4
  br label %63

79:                                               ; preds = %73, %63
  %80 = load i32, i32* %2, align 4
  %81 = sext i32 %80 to i64
  %82 = getelementptr inbounds [10 x i32], [10 x i32]* %9, i64 0, i64 %81
  %83 = load i32, i32* %82, align 4
  store i32 %83, i32* %5, align 4
  %84 = load i32, i32* %2, align 4
  %85 = sub nsw i32 %84, 1
  store i32 %85, i32* %4, align 4
  br label %86

86:                                               ; preds = %106, %79
  %87 = load i32, i32* %4, align 4
  %88 = load i32, i32* %6, align 4
  %89 = icmp sge i32 %87, %88
  br i1 %89, label %90, label %109

90:                                               ; preds = %86
  %91 = load i32, i32* %5, align 4
  %92 = sitofp i32 %91 to double
  %93 = load i32, i32* %4, align 4
  %94 = sext i32 %93 to i64
  %95 = getelementptr inbounds [10 x i32], [10 x i32]* %9, i64 0, i64 %94
  %96 = load i32, i32* %95, align 4
  %97 = sitofp i32 %96 to double
  %98 = load i32, i32* %2, align 4
  %99 = load i32, i32* %4, align 4
  %100 = sub nsw i32 %98, %99
  %101 = sitofp i32 %100 to double
  %102 = call double @pow(double 1.000000e+01, double %101) #5
  %103 = fmul double %97, %102
  %104 = fadd double %92, %103
  %105 = fptosi double %104 to i32
  store i32 %105, i32* %5, align 4
  br label %106

106:                                              ; preds = %90
  %107 = load i32, i32* %4, align 4
  %108 = add nsw i32 %107, -1
  store i32 %108, i32* %4, align 4
  br label %86

109:                                              ; preds = %86
  %110 = load i32, i32* %5, align 4
  %111 = call i32 (i8*, ...) @printf(i8* getelementptr inbounds ([4 x i8], [4 x i8]* @.str.2, i64 0, i64 0), i32 %110)
  br label %112

112:                                              ; preds = %109
  %113 = load i32, i32* %7, align 4
  %114 = add nsw i32 %113, 1
  store i32 %114, i32* %7, align 4
  br label %11

115:                                              ; preds = %11
  ret void
}

; Function Attrs: argmemonly nounwind willreturn
declare void @llvm.memset.p0i8.i64(i8* nocapture writeonly, i8, i64, i1 immarg) #1

declare dso_local i32 @__isoc99_scanf(i8*, ...) #2

declare dso_local i32 @printf(i8*, ...) #2

; Function Attrs: nounwind readnone speculatable willreturn
declare double @llvm.fabs.f64(double) #3

; Function Attrs: nounwind
declare dso_local double @log10(double) #4

; Function Attrs: nounwind
declare dso_local double @pow(double, double) #4


!llvm.module.flags = !{!0}
!llvm.ident = !{!1}

!0 = !{i32 1, !"wchar_size", i32 4}
!1 = !{!"clang version 10.0.0-4ubuntu1 "}
